#include <math.h>
#include <stdio.h>
#include <stdlib.h>
#include <string.h>

int main()
{
    char c[100000];
    int n,m;
    scanf("%d\n",&n);
    for (int i=0;i<n;i++)
    {
        gets(c);
        for (int j=0;c[j]!='\0';j++)
		{
			m=0;
			for (int k=0;c[k]!='\0';k++)
			{
				if (k!=j)
				{
					if (c[k]==c[j])
					{
						m=1;
						break;
					}
				}
			}
			if (m==0)
			{
				printf("%c\n",c[j]);
				break;
			}
		}
		if (m==1) printf("no\n");
    }
    return 0;
}