; ModuleID = '37/637.c'
source_filename = "37/637.c"
target datalayout = "e-m:e-p270:32:32-p271:32:32-p272:64:64-i64:64-f80:128-n8:16:32:64-S128"
target triple = "x86_64-pc-linux-gnu"

@.str = private unnamed_addr constant [4 x i8] c"%d\0A\00", align 1
@.str.1 = private unnamed_addr constant [4 x i8] c"%c\0A\00", align 1
@.str.2 = private unnamed_addr constant [4 x i8] c"no\0A\00", align 1

; Function Attrs: noinline nounwind uwtable
define dso_local i32 @main() #0 {
  %1 = alloca i32, align 4
  %2 = alloca [100000 x i8], align 16
  %3 = alloca i32, align 4
  %4 = alloca i32, align 4
  %5 = alloca i32, align 4
  %6 = alloca i32, align 4
  %7 = alloca i32, align 4
  store i32 0, i32* %1, align 4
  %8 = call i32 (i8*, ...) @__isoc99_scanf(i8* getelementptr inbounds ([4 x i8], [4 x i8]* @.str, i64 0, i64 0), i32* %3)
  store i32 0, i32* %5, align 4
  br label %9

9:                                                ; preds = %73, %0
  %10 = load i32, i32* %5, align 4
  %11 = load i32, i32* %3, align 4
  %12 = icmp slt i32 %10, %11
  br i1 %12, label %13, label %76

13:                                               ; preds = %9
  %14 = getelementptr inbounds [100000 x i8], [100000 x i8]* %2, i64 0, i64 0
  %15 = call i32 (i8*, ...) bitcast (i32 (...)* @gets to i32 (i8*, ...)*)(i8* %14)
  store i32 0, i32* %6, align 4
  br label %16

16:                                               ; preds = %64, %13
  %17 = load i32, i32* %6, align 4
  %18 = sext i32 %17 to i64
  %19 = getelementptr inbounds [100000 x i8], [100000 x i8]* %2, i64 0, i64 %18
  %20 = load i8, i8* %19, align 1
  %21 = sext i8 %20 to i32
  %22 = icmp ne i32 %21, 0
  br i1 %22, label %23, label %67

23:                                               ; preds = %16
  store i32 0, i32* %4, align 4
  store i32 0, i32* %7, align 4
  br label %24

24:                                               ; preds = %50, %23
  %25 = load i32, i32* %7, align 4
  %26 = sext i32 %25 to i64
  %27 = getelementptr inbounds [100000 x i8], [100000 x i8]* %2, i64 0, i64 %26
  %28 = load i8, i8* %27, align 1
  %29 = sext i8 %28 to i32
  %30 = icmp ne i32 %29, 0
  br i1 %30, label %31, label %53

31:                                               ; preds = %24
  %32 = load i32, i32* %7, align 4
  %33 = load i32, i32* %6, align 4
  %34 = icmp ne i32 %32, %33
  br i1 %34, label %35, label %49

35:                                               ; preds = %31
  %36 = load i32, i32* %7, align 4
  %37 = sext i32 %36 to i64
  %38 = getelementptr inbounds [100000 x i8], [100000 x i8]* %2, i64 0, i64 %37
  %39 = load i8, i8* %38, align 1
  %40 = sext i8 %39 to i32
  %41 = load i32, i32* %6, align 4
  %42 = sext i32 %41 to i64
  %43 = getelementptr inbounds [100000 x i8], [100000 x i8]* %2, i64 0, i64 %42
  %44 = load i8, i8* %43, align 1
  %45 = sext i8 %44 to i32
  %46 = icmp eq i32 %40, %45
  br i1 %46, label %47, label %48

47:                                               ; preds = %35
  store i32 1, i32* %4, align 4
  br label %53

48:                                               ; preds = %35
  br label %49

49:                                               ; preds = %48, %31
  br label %50

50:                                               ; preds = %49
  %51 = load i32, i32* %7, align 4
  %52 = add nsw i32 %51, 1
  store i32 %52, i32* %7, align 4
  br label %24

53:                                               ; preds = %47, %24
  %54 = load i32, i32* %4, align 4
  %55 = icmp eq i32 %54, 0
  br i1 %55, label %56, label %63

56:                                               ; preds = %53
  %57 = load i32, i32* %6, align 4
  %58 = sext i32 %57 to i64
  %59 = getelementptr inbounds [100000 x i8], [100000 x i8]* %2, i64 0, i64 %58
  %60 = load i8, i8* %59, align 1
  %61 = sext i8 %60 to i32
  %62 = call i32 (i8*, ...) @printf(i8* getelementptr inbounds ([4 x i8], [4 x i8]* @.str.1, i64 0, i64 0), i32 %61)
  br label %67

63:                                               ; preds = %53
  br label %64

64:                                               ; preds = %63
  %65 = load i32, i32* %6, align 4
  %66 = add nsw i32 %65, 1
  store i32 %66, i32* %6, align 4
  br label %16

67:                                               ; preds = %56, %16
  %68 = load i32, i32* %4, align 4
  %69 = icmp eq i32 %68, 1
  br i1 %69, label %70, label %72

70:                                               ; preds = %67
  %71 = call i32 (i8*, ...) @printf(i8* getelementptr inbounds ([4 x i8], [4 x i8]* @.str.2, i64 0, i64 0))
  br label %72

72:                                               ; preds = %70, %67
  br label %73

73:                                               ; preds = %72
  %74 = load i32, i32* %5, align 4
  %75 = add nsw i32 %74, 1
  store i32 %75, i32* %5, align 4
  br label %9

76:                                               ; preds = %9
  ret i32 0
}

declare dso_local i32 @__isoc99_scanf(i8*, ...) #1

declare dso_local i32 @gets(...) #1

declare dso_local i32 @printf(i8*, ...) #1


!llvm.module.flags = !{!0}
!llvm.ident = !{!1}

!0 = !{i32 1, !"wchar_size", i32 4}
!1 = !{!"clang version 10.0.0-4ubuntu1 "}
